MPLINK 5.08, LINKER
Linker Map File - Created Thu Aug 24 13:01:39 2017

                                 Section Info
                  Section       Type    Address   Location Size(Bytes)
                ---------  ---------  ---------  ---------  ---------
                   .org_1       code   0x000000    program   0x000004
                   .cinit    romdata   0x000002    program   0x000004
                   .org_2       code   0x000004    program   0x0000a4
.config_8007_BUILD/DEFAULT/PRODUCTION/MAIN.O       code   0x008007    program   0x000002
.config_8008_BUILD/DEFAULT/PRODUCTION/MAIN.O       code   0x008008    program   0x000002
                   .org_0       code   0x00f000    program   0x000008



                              Program Memory Usage 
                               Start         End      
                           ---------   ---------      
                            0x000000    0x000055      
                            0x008007    0x008008      
                            0x00f000    0x00f003      
            92 out of 2311 program addresses used, program memory utilization is 3%



                              Symbols - Sorted by Name
                     Name    Address   Location    Storage File                     
                ---------  ---------  ---------  --------- ---------                
                   DATAEE   0x00f000    program     static /Users/permotion/Documents/PIC/MPLABXProjects/uart.X/main.asm
              DELAY_500mS   0x000046    program     static /Users/permotion/Documents/PIC/MPLABXProjects/uart.X/main.asm
          DELAY_500mS_END   0x000055    program     static /Users/permotion/Documents/PIC/MPLABXProjects/uart.X/main.asm
         DELAY_500mS_loop   0x00004d    program     static /Users/permotion/Documents/PIC/MPLABXProjects/uart.X/main.asm
                DELAY_5mS   0x00003c    program     static /Users/permotion/Documents/PIC/MPLABXProjects/uart.X/main.asm
            DELAY_5mS_END   0x000045    program     static /Users/permotion/Documents/PIC/MPLABXProjects/uart.X/main.asm
           DELAY_5mS_loop   0x000040    program     static /Users/permotion/Documents/PIC/MPLABXProjects/uart.X/main.asm
                    SETUP   0x00000e    program     static /Users/permotion/Documents/PIC/MPLABXProjects/uart.X/main.asm
                SETUP_END   0x000017    program     static /Users/permotion/Documents/PIC/MPLABXProjects/uart.X/main.asm
                    START   0x000005    program     static /Users/permotion/Documents/PIC/MPLABXProjects/uart.X/main.asm
             UART_GETCHAR   0x000035    program     static /Users/permotion/Documents/PIC/MPLABXProjects/uart.X/main.asm
         UART_GETCHAR_END   0x00003b    program     static /Users/permotion/Documents/PIC/MPLABXProjects/uart.X/main.asm
                UART_INIT   0x000018    program     static /Users/permotion/Documents/PIC/MPLABXProjects/uart.X/main.asm
            UART_INIT_END   0x00002d    program     static /Users/permotion/Documents/PIC/MPLABXProjects/uart.X/main.asm
             UART_PUTCHAR   0x00002e    program     static /Users/permotion/Documents/PIC/MPLABXProjects/uart.X/main.asm
         UART_PUTCHAR_END   0x000034    program     static /Users/permotion/Documents/PIC/MPLABXProjects/uart.X/main.asm
                WAITCHAR1   0x000031    program     static /Users/permotion/Documents/PIC/MPLABXProjects/uart.X/main.asm
                WAITCHAR2   0x000035    program     static /Users/permotion/Documents/PIC/MPLABXProjects/uart.X/main.asm
             _.org_2_000D   0x00000d    program     static /Users/permotion/Documents/PIC/MPLABXProjects/uart.X/main.asm
             _.org_2_0041   0x000041    program     static /Users/permotion/Documents/PIC/MPLABXProjects/uart.X/main.asm
             _.org_2_0044   0x000044    program     static /Users/permotion/Documents/PIC/MPLABXProjects/uart.X/main.asm
             _.org_2_004E   0x00004e    program     static /Users/permotion/Documents/PIC/MPLABXProjects/uart.X/main.asm
             _.org_2_0050   0x000050    program     static /Users/permotion/Documents/PIC/MPLABXProjects/uart.X/main.asm
             _.org_2_0053   0x000053    program     static /Users/permotion/Documents/PIC/MPLABXProjects/uart.X/main.asm
             _.org_2_0054   0x000054    program     static /Users/permotion/Documents/PIC/MPLABXProjects/uart.X/main.asm



                              Symbols - Sorted by Address
                     Name    Address   Location    Storage File                     
                ---------  ---------  ---------  --------- ---------                
                    START   0x000005    program     static /Users/permotion/Documents/PIC/MPLABXProjects/uart.X/main.asm
             _.org_2_000D   0x00000d    program     static /Users/permotion/Documents/PIC/MPLABXProjects/uart.X/main.asm
                    SETUP   0x00000e    program     static /Users/permotion/Documents/PIC/MPLABXProjects/uart.X/main.asm
                SETUP_END   0x000017    program     static /Users/permotion/Documents/PIC/MPLABXProjects/uart.X/main.asm
                UART_INIT   0x000018    program     static /Users/permotion/Documents/PIC/MPLABXProjects/uart.X/main.asm
            UART_INIT_END   0x00002d    program     static /Users/permotion/Documents/PIC/MPLABXProjects/uart.X/main.asm
             UART_PUTCHAR   0x00002e    program     static /Users/permotion/Documents/PIC/MPLABXProjects/uart.X/main.asm
                WAITCHAR1   0x000031    program     static /Users/permotion/Documents/PIC/MPLABXProjects/uart.X/main.asm
         UART_PUTCHAR_END   0x000034    program     static /Users/permotion/Documents/PIC/MPLABXProjects/uart.X/main.asm
                WAITCHAR2   0x000035    program     static /Users/permotion/Documents/PIC/MPLABXProjects/uart.X/main.asm
             UART_GETCHAR   0x000035    program     static /Users/permotion/Documents/PIC/MPLABXProjects/uart.X/main.asm
         UART_GETCHAR_END   0x00003b    program     static /Users/permotion/Documents/PIC/MPLABXProjects/uart.X/main.asm
                DELAY_5mS   0x00003c    program     static /Users/permotion/Documents/PIC/MPLABXProjects/uart.X/main.asm
           DELAY_5mS_loop   0x000040    program     static /Users/permotion/Documents/PIC/MPLABXProjects/uart.X/main.asm
             _.org_2_0041   0x000041    program     static /Users/permotion/Documents/PIC/MPLABXProjects/uart.X/main.asm
             _.org_2_0044   0x000044    program     static /Users/permotion/Documents/PIC/MPLABXProjects/uart.X/main.asm
            DELAY_5mS_END   0x000045    program     static /Users/permotion/Documents/PIC/MPLABXProjects/uart.X/main.asm
              DELAY_500mS   0x000046    program     static /Users/permotion/Documents/PIC/MPLABXProjects/uart.X/main.asm
         DELAY_500mS_loop   0x00004d    program     static /Users/permotion/Documents/PIC/MPLABXProjects/uart.X/main.asm
             _.org_2_004E   0x00004e    program     static /Users/permotion/Documents/PIC/MPLABXProjects/uart.X/main.asm
             _.org_2_0050   0x000050    program     static /Users/permotion/Documents/PIC/MPLABXProjects/uart.X/main.asm
             _.org_2_0053   0x000053    program     static /Users/permotion/Documents/PIC/MPLABXProjects/uart.X/main.asm
             _.org_2_0054   0x000054    program     static /Users/permotion/Documents/PIC/MPLABXProjects/uart.X/main.asm
          DELAY_500mS_END   0x000055    program     static /Users/permotion/Documents/PIC/MPLABXProjects/uart.X/main.asm
                   DATAEE   0x00f000    program     static /Users/permotion/Documents/PIC/MPLABXProjects/uart.X/main.asm


